.section .prg_rom_5.rodata.energy_sprites, "a", @progbits

.global energy_sprites

energy_sprites:

.byte 0
.byte _ZN11Metasprites7Energy1E@mos16lo
.byte _ZN11Metasprites7Energy2E@mos16lo
.byte _ZN11Metasprites7Energy3E@mos16lo
.byte _ZN11Metasprites7Energy4E@mos16lo
.byte _ZN11Metasprites7Energy5E@mos16lo
.byte _ZN11Metasprites7Energy6E@mos16lo
.byte _ZN11Metasprites7Energy7E@mos16lo
.byte _ZN11Metasprites7Energy8E@mos16lo
.byte _ZN11Metasprites7Energy9E@mos16lo
.byte _ZN11Metasprites8Energy10E@mos16lo
.byte _ZN11Metasprites8Energy11E@mos16lo
.byte _ZN11Metasprites8Energy12E@mos16lo

.byte 0
.byte _ZN11Metasprites7Energy1E@mos16hi
.byte _ZN11Metasprites7Energy2E@mos16hi
.byte _ZN11Metasprites7Energy3E@mos16hi
.byte _ZN11Metasprites7Energy4E@mos16hi
.byte _ZN11Metasprites7Energy5E@mos16hi
.byte _ZN11Metasprites7Energy6E@mos16hi
.byte _ZN11Metasprites7Energy7E@mos16hi
.byte _ZN11Metasprites7Energy8E@mos16hi
.byte _ZN11Metasprites7Energy9E@mos16hi
.byte _ZN11Metasprites8Energy10E@mos16hi
.byte _ZN11Metasprites8Energy11E@mos16hi
.byte _ZN11Metasprites8Energy12E@mos16hi